ccopy_reg
_reconstructor
p0
(cgoogle.oauth2.credentials
Credentials
p1
c__builtin__
object
p2
Ntp3
Rp4
(dp5
S'_quota_project_id'
p6
NsS'_token_uri'
p7
Vhttps://oauth2.googleapis.com/token
p8
sS'_client_secret'
p9
VtWpU47064WgtBKxI_IY2ssx_
p10
sS'_id_token'
p11
NsS'token'
p12
Vya29.a0AfH6SMAHko4gSLxRW-xbWupKGKR3c7rvvR1La1PUI9mpdbH0xDD0x17f3f6FDgcbktBYxqvmKA_ZrBZ1qSyQgSdSAAtwmHwx7ffUjTbR75GFgkC4oI4OsYCC52nwiktOCWsS7w5eX_ns6KhgYofPkRhN7o0rOowr_JM
p13
sS'_refresh_token'
p14
V1//0gFh3CM3vRrTtCgYIARAAGBASNwF-L9IrFZ7tdtN2zfI0SKxkOsu1erIbbf08WE5I0TtPqZxmtS-e_DMj0bmn3j8BJXBxm11R1Z4
p15
sS'_scopes'
p16
(lp17
S'https://www.googleapis.com/auth/calendar.readonly'
p18
asS'_client_id'
p19
V444318446598-12ol4223rcg6vc9n7tslbtfq9bk5okj3.apps.googleusercontent.com
p20
sS'expiry'
p21
cdatetime
datetime
p22
(S'\x07\xe4\t\t\x0f(\x1c\x02\x91"'
p23
tp24
Rp25
sb.